target datalayout = "e-m:e-p270:32:32-p271:32:32-p272:64:64-i64:64-i128:128-f80:128-n8:16:32:64-S128"
target triple = "x86_64-pc-linux-gnu"

%struct.jit_State = type { %struct.GCtrace, ptr, ptr, ptr, ptr, ptr, ptr, i32, i32, i32, i8, i8, %struct.IRType1, i8, %struct.FoldState, ptr, i32, i32, i32, i32, i32, i32, i32, [1 x i32], [5 x %union.TValue], [3 x %union.TValue], ptr, i32, i32, i32, i32, ptr, ptr, i32, i32, i8, ptr, i32, i32, i16, [101 x i16], [258 x i32], [15 x i32], [16 x ptr], [64 x %struct.HotPenalty], i32, [16 x %struct.BPropEntry], i32, %struct.ScEvEntry, ptr, i32, i32, i32, ptr, i32, i32, ptr, ptr, ptr, i64, i64, %union.TValue, ptr, i32, i32 }
%struct.GCtrace = type { %struct.GCRef, i8, i8, i16, i32, i32, %struct.GCRef, ptr, i32, i32, ptr, ptr, %struct.GCRef, %struct.MRef, i32, i32, ptr, i32, i16, i16, i16, i16, i16, i16, i16, i8, i8, i8, i8 }
%struct.GCRef = type { i64 }
%struct.MRef = type { i64 }
%struct.IRType1 = type { i8 }
%struct.FoldState = type { %union.IRIns, [2 x %union.IRIns], [2 x %union.IRIns] }
%union.IRIns = type { %struct.GCRef }
%struct.HotPenalty = type { %struct.MRef, i16, i16 }
%struct.BPropEntry = type { i16, i16, i32 }
%struct.ScEvEntry = type { %struct.MRef, i16, i16, i16, i16, %struct.IRType1, i8 }
%union.TValue = type { i64 }
%struct.anon.1 = type { i16, i16, i16, i16 }

; Function Attrs: alwaysinline nounwind uwtable
define internal void @lj_ir_set_(ptr noundef %0, i16 noundef zeroext %1, i16 noundef zeroext %2, i16 noundef zeroext %3) #3 {
  %5 = alloca ptr, align 8
  %6 = alloca i16, align 2
  %7 = alloca i16, align 2
  %8 = alloca i16, align 2
  store ptr %0, ptr %5, align 8, !tbaa !4
  store i16 %1, ptr %6, align 2, !tbaa !13
  store i16 %2, ptr %7, align 2, !tbaa !13
  store i16 %3, ptr %8, align 2, !tbaa !13
  %9 = load i16, ptr %6, align 2, !tbaa !13
  %10 = load ptr, ptr %5, align 8, !tbaa !4
  %11 = getelementptr inbounds nuw %struct.jit_State, ptr %10, i32 0, i32 14
  %12 = getelementptr inbounds nuw %struct.FoldState, ptr %11, i32 0, i32 0
  %13 = getelementptr inbounds nuw %struct.anon.1, ptr %12, i32 0, i32 2
  store i16 %9, ptr %13, align 4, !tbaa !15
  %14 = load i16, ptr %7, align 2, !tbaa !13
  %15 = load ptr, ptr %5, align 8, !tbaa !4
  %16 = getelementptr inbounds nuw %struct.jit_State, ptr %15, i32 0, i32 14
  %17 = getelementptr inbounds nuw %struct.FoldState, ptr %16, i32 0, i32 0
  %18 = getelementptr inbounds nuw %struct.anon.1, ptr %17, i32 0, i32 0
  store i16 %14, ptr %18, align 8, !tbaa !15
  %19 = load i16, ptr %8, align 2, !tbaa !13
  %20 = load ptr, ptr %5, align 8, !tbaa !4
  %21 = getelementptr inbounds nuw %struct.jit_State, ptr %20, i32 0, i32 14
  %22 = getelementptr inbounds nuw %struct.FoldState, ptr %21, i32 0, i32 0
  %23 = getelementptr inbounds nuw %struct.anon.1, ptr %22, i32 0, i32 1
  store i16 %19, ptr %23, align 2, !tbaa !15
  ret void
}

; Function Attrs: nounwind uwtable
define internal void @rec_for_check(ptr noundef %0, i32 noundef %1, i32 noundef %2, i32 noundef %3, i32 noundef %4, i32 noundef %5) #0 {
  %7 = alloca ptr, align 8
  %8 = alloca i32, align 4
  %9 = alloca i32, align 4
  %10 = alloca i32, align 4
  %11 = alloca i32, align 4
  %12 = alloca i32, align 4
  %13 = alloca i32, align 4
  %14 = alloca i32, align 4
  %15 = alloca i32, align 4
  %16 = alloca i32, align 4
  store ptr %0, ptr %7, align 8, !tbaa !4
  store i32 %1, ptr %8, align 4, !tbaa !9
  store i32 %2, ptr %9, align 4, !tbaa !9
  store i32 %3, ptr %10, align 4, !tbaa !9
  store i32 %4, ptr %11, align 4, !tbaa !9
  store i32 %5, ptr %12, align 4, !tbaa !9
  %17 = load i32, ptr %11, align 4, !tbaa !9
  %18 = trunc i32 %17 to i16
  %19 = zext i16 %18 to i32
  %20 = icmp slt i32 %19, 32768
  br i1 %20, label %115, label %21

21:                                               ; preds = %6
  call void @llvm.lifetime.start.p0(i64 4, ptr %13) #9
  %22 = load i32, ptr %8, align 4, !tbaa !9
  %23 = icmp eq i32 %22, 19
  br i1 %23, label %24, label %27

24:                                               ; preds = %21
  %25 = load ptr, ptr %7, align 8, !tbaa !4
  %26 = call i32 @lj_ir_kint(ptr noundef %25, i32 noundef 0)
  br label %30

27:                                               ; preds = %21
  %28 = load ptr, ptr %7, align 8, !tbaa !4
  %29 = call i32 @lj_ir_knum_u64(ptr noundef %28, i64 noundef 0)
  br label %30

30:                                               ; preds = %27, %24
  %31 = phi i32 [ %26, %24 ], [ %29, %27 ]
  store i32 %31, ptr %13, align 4, !tbaa !9
  %32 = load ptr, ptr %7, align 8, !tbaa !4
  %33 = load i32, ptr %9, align 4, !tbaa !9
  %34 = icmp ne i32 %33, 0
  %35 = select i1 %34, i32 1, i32 0
  %36 = shl i32 %35, 8
  %37 = load i32, ptr %8, align 4, !tbaa !9
  %38 = or i32 128, %37
  %39 = or i32 %36, %38
  %40 = trunc i32 %39 to i16
  %41 = load i32, ptr %11, align 4, !tbaa !9
  %42 = trunc i32 %41 to i16
  %43 = load i32, ptr %13, align 4, !tbaa !9
  %44 = trunc i32 %43 to i16
  call void @lj_ir_set_(ptr noundef %32, i16 noundef zeroext %40, i16 noundef zeroext %42, i16 noundef zeroext %44)
  %45 = load ptr, ptr %7, align 8, !tbaa !4
  %46 = call i32 @lj_opt_fold(ptr noundef %45)
  %47 = load i32, ptr %12, align 4, !tbaa !9
  %48 = icmp ne i32 %47, 0
  br i1 %48, label %49, label %114

49:                                               ; preds = %30
  %50 = load i32, ptr %8, align 4, !tbaa !9
  %51 = icmp eq i32 %50, 19
  br i1 %51, label %52, label %114

52:                                               ; preds = %49
  %53 = load i32, ptr %10, align 4, !tbaa !9
  %54 = trunc i32 %53 to i16
  %55 = zext i16 %54 to i32
  %56 = icmp slt i32 %55, 32768
  br i1 %56, label %57, label %100

57:                                               ; preds = %52
  call void @llvm.lifetime.start.p0(i64 4, ptr %14) #9
  %58 = load ptr, ptr %7, align 8, !tbaa !4
  %59 = getelementptr inbounds nuw %struct.jit_State, ptr %58, i32 0, i32 0
  %60 = getelementptr inbounds nuw %struct.GCtrace, ptr %59, i32 0, i32 7
  %61 = load ptr, ptr %60, align 8, !tbaa !45
  %62 = load i32, ptr %10, align 4, !tbaa !9
  %63 = trunc i32 %62 to i16
  %64 = zext i16 %63 to i64
  %65 = getelementptr inbounds nuw %union.IRIns, ptr %61, i64 %64
  %66 = load i32, ptr %65, align 8, !tbaa !15
  store i32 %66, ptr %14, align 4, !tbaa !9
  %67 = load i32, ptr %9, align 4, !tbaa !9
  %68 = icmp ne i32 %67, 0
  br i1 %68, label %69, label %84

69:                                               ; preds = %57
  %70 = load i32, ptr %14, align 4, !tbaa !9
  %71 = icmp sgt i32 %70, 0
  br i1 %71, label %72, label %83

72:                                               ; preds = %69
  %73 = load ptr, ptr %7, align 8, !tbaa !4
  %74 = load i32, ptr %11, align 4, !tbaa !9
  %75 = trunc i32 %74 to i16
  %76 = load ptr, ptr %7, align 8, !tbaa !4
  %77 = load i32, ptr %14, align 4, !tbaa !9
  %78 = sub nsw i32 2147483647, %77
  %79 = call i32 @lj_ir_kint(ptr noundef %76, i32 noundef %78)
  %80 = trunc i32 %79 to i16
  call void @lj_ir_set_(ptr noundef %73, i16 noundef zeroext 659, i16 noundef zeroext %75, i16 noundef zeroext %80)
  %81 = load ptr, ptr %7, align 8, !tbaa !4
  %82 = call i32 @lj_opt_fold(ptr noundef %81)
  br label %83

83:                                               ; preds = %72, %69
  br label %99

84:                                               ; preds = %57
  %85 = load i32, ptr %14, align 4, !tbaa !9
  %86 = icmp slt i32 %85, 0
  br i1 %86, label %87, label %98

87:                                               ; preds = %84
  %88 = load ptr, ptr %7, align 8, !tbaa !4
  %89 = load i32, ptr %11, align 4, !tbaa !9
  %90 = trunc i32 %89 to i16
  %91 = load ptr, ptr %7, align 8, !tbaa !4
  %92 = load i32, ptr %14, align 4, !tbaa !9
  %93 = sub nsw i32 -2147483648, %92
  %94 = call i32 @lj_ir_kint(ptr noundef %91, i32 noundef %93)
  %95 = trunc i32 %94 to i16
  call void @lj_ir_set_(ptr noundef %88, i16 noundef zeroext 403, i16 noundef zeroext %90, i16 noundef zeroext %95)
  %96 = load ptr, ptr %7, align 8, !tbaa !4
  %97 = call i32 @lj_opt_fold(ptr noundef %96)
  br label %98

98:                                               ; preds = %87, %84
  br label %99

99:                                               ; preds = %98, %83
  call void @llvm.lifetime.end.p0(i64 4, ptr %14) #9
  br label %113

100:                                              ; preds = %52
  call void @llvm.lifetime.start.p0(i64 4, ptr %15) #9
  %101 = load ptr, ptr %7, align 8, !tbaa !4
  %102 = load i32, ptr %11, align 4, !tbaa !9
  %103 = trunc i32 %102 to i16
  %104 = load i32, ptr %10, align 4, !tbaa !9
  %105 = trunc i32 %104 to i16
  call void @lj_ir_set_(ptr noundef %101, i16 noundef zeroext 13715, i16 noundef zeroext %103, i16 noundef zeroext %105)
  %106 = load ptr, ptr %7, align 8, !tbaa !4
  %107 = call i32 @lj_opt_fold(ptr noundef %106)
  store i32 %107, ptr %15, align 4, !tbaa !9
  %108 = load ptr, ptr %7, align 8, !tbaa !4
  %109 = load i32, ptr %15, align 4, !tbaa !9
  %110 = trunc i32 %109 to i16
  call void @lj_ir_set_(ptr noundef %108, i16 noundef zeroext 4627, i16 noundef zeroext %110, i16 noundef zeroext 0)
  %111 = load ptr, ptr %7, align 8, !tbaa !4
  %112 = call i32 @lj_opt_fold(ptr noundef %111)
  call void @llvm.lifetime.end.p0(i64 4, ptr %15) #9
  br label %113

113:                                              ; preds = %100, %99
  br label %114

114:                                              ; preds = %113, %49, %30
  call void @llvm.lifetime.end.p0(i64 4, ptr %13) #9
  br label %157

115:                                              ; preds = %6
  %116 = load i32, ptr %12, align 4, !tbaa !9
  %117 = icmp ne i32 %116, 0
  br i1 %117, label %118, label %156

118:                                              ; preds = %115
  %119 = load i32, ptr %8, align 4, !tbaa !9
  %120 = icmp eq i32 %119, 19
  br i1 %120, label %121, label %156

121:                                              ; preds = %118
  %122 = load i32, ptr %10, align 4, !tbaa !9
  %123 = trunc i32 %122 to i16
  %124 = zext i16 %123 to i32
  %125 = icmp slt i32 %124, 32768
  br i1 %125, label %156, label %126

126:                                              ; preds = %121
  call void @llvm.lifetime.start.p0(i64 4, ptr %16) #9
  %127 = load ptr, ptr %7, align 8, !tbaa !4
  %128 = getelementptr inbounds nuw %struct.jit_State, ptr %127, i32 0, i32 0
  %129 = getelementptr inbounds nuw %struct.GCtrace, ptr %128, i32 0, i32 7
  %130 = load ptr, ptr %129, align 8, !tbaa !45
  %131 = load i32, ptr %11, align 4, !tbaa !9
  %132 = trunc i32 %131 to i16
  %133 = zext i16 %132 to i64
  %134 = getelementptr inbounds nuw %union.IRIns, ptr %130, i64 %133
  %135 = load i32, ptr %134, align 8, !tbaa !15
  store i32 %135, ptr %16, align 4, !tbaa !9
  %136 = load i32, ptr %9, align 4, !tbaa !9
  %137 = icmp ne i32 %136, 0
  %138 = select i1 %137, i32 2147483647, i32 -2147483648
  %139 = load i32, ptr %16, align 4, !tbaa !9
  %140 = sub nsw i32 %138, %139
  store i32 %140, ptr %16, align 4, !tbaa !9
  %141 = load ptr, ptr %7, align 8, !tbaa !4
  %142 = load i32, ptr %9, align 4, !tbaa !9
  %143 = icmp ne i32 %142, 0
  %144 = select i1 %143, i32 2, i32 1
  %145 = shl i32 %144, 8
  %146 = or i32 %145, 147
  %147 = trunc i32 %146 to i16
  %148 = load i32, ptr %10, align 4, !tbaa !9
  %149 = trunc i32 %148 to i16
  %150 = load ptr, ptr %7, align 8, !tbaa !4
  %151 = load i32, ptr %16, align 4, !tbaa !9
  %152 = call i32 @lj_ir_kint(ptr noundef %150, i32 noundef %151)
  %153 = trunc i32 %152 to i16
  call void @lj_ir_set_(ptr noundef %141, i16 noundef zeroext %147, i16 noundef zeroext %149, i16 noundef zeroext %153)
  %154 = load ptr, ptr %7, align 8, !tbaa !4
  %155 = call i32 @lj_opt_fold(ptr noundef %154)
  call void @llvm.lifetime.end.p0(i64 4, ptr %16) #9
  br label %156

156:                                              ; preds = %126, %121, %118, %115
  br label %157

157:                                              ; preds = %156, %114
  ret void
}