; Function Attrs: nounwind uwtable
define internal fastcc void @rec_for_check(ptr noundef %0, i32 noundef %1, i32 noundef range(i32 0, 2) %2, i32 noundef %3, i32 noundef %4, i32 noundef range(i32 0, 2) %5) unnamed_addr #0 {
  %7 = trunc i32 %4 to i16
  %8 = and i32 %4, 32768
  %.not.not = icmp eq i32 %8, 0
  br i1 %.not.not, label %51, label %9

9:                                                ; preds = %6
  %10 = icmp eq i32 %1, 19
  br i1 %10, label %11, label %13

11:                                               ; preds = %9
  %12 = tail call i32 @lj_ir_kint(ptr noundef %0, i32 noundef 0) #8
  br label %15

13:                                               ; preds = %9
  %14 = tail call i32 @lj_ir_knum_u64(ptr noundef %0, i64 noundef 0) #8
  br label %15

15:                                               ; preds = %13, %11
  %16 = phi i32 [ %12, %11 ], [ %14, %13 ]
  %.not.not50 = icmp eq i32 %2, 0
  %17 = shl nuw nsw i32 %2, 8
  %18 = or i32 %1, %17
  %19 = trunc i32 %18 to i16
  %20 = or i16 %19, 128
  %21 = trunc i32 %16 to i16
  %22 = getelementptr inbounds nuw i8, ptr %0, i64 184
  %23 = getelementptr inbounds nuw i8, ptr %0, i64 188
  store i16 %20, ptr %23, align 4, !tbaa !4
  store i16 %7, ptr %22, align 8, !tbaa !4
  %24 = getelementptr inbounds nuw i8, ptr %0, i64 186
  store i16 %21, ptr %24, align 2, !tbaa !4
  %25 = tail call i32 @lj_opt_fold(ptr noundef %0) #8
  %26 = icmp ne i32 %5, 0
  %or.cond = and i1 %10, %26
  br i1 %or.cond, label %27, label %71

27:                                               ; preds = %15
  %28 = and i32 %3, 32768
  %.not.not51 = icmp eq i32 %28, 0
  br i1 %.not.not51, label %29, label %47

29:                                               ; preds = %27
  %30 = getelementptr inbounds nuw i8, ptr %0, i64 32
  %31 = load ptr, ptr %30, align 8, !tbaa !38
  %.mask = and i32 %3, 32767
  %32 = zext nneg i32 %.mask to i64
  %33 = getelementptr inbounds nuw %union.IRIns, ptr %31, i64 %32
  %34 = load i32, ptr %33, align 8, !tbaa !4
  br i1 %.not.not50, label %41, label %35

35:                                               ; preds = %29
  %36 = icmp sgt i32 %34, 0
  br i1 %36, label %37, label %71

37:                                               ; preds = %35
  %38 = sub nuw nsw i32 2147483647, %34
  %39 = tail call i32 @lj_ir_kint(ptr noundef nonnull %0, i32 noundef %38) #8
  %40 = trunc i32 %39 to i16
  store i16 659, ptr %23, align 4, !tbaa !4
  store i16 %7, ptr %22, align 8, !tbaa !4
  store i16 %40, ptr %24, align 2, !tbaa !4
  br label %.sink.split

41:                                               ; preds = %29
  %42 = icmp slt i32 %34, 0
  br i1 %42, label %43, label %71

43:                                               ; preds = %41
  %44 = sub nsw i32 -2147483648, %34
  %45 = tail call i32 @lj_ir_kint(ptr noundef nonnull %0, i32 noundef %44) #8
  %46 = trunc i32 %45 to i16
  store i16 403, ptr %23, align 4, !tbaa !4
  store i16 %7, ptr %22, align 8, !tbaa !4
  store i16 %46, ptr %24, align 2, !tbaa !4
  br label %.sink.split

47:                                               ; preds = %27
  %48 = trunc i32 %3 to i16
  store i16 13715, ptr %23, align 4, !tbaa !4
  store i16 %7, ptr %22, align 8, !tbaa !4
  store i16 %48, ptr %24, align 2, !tbaa !4
  %49 = tail call i32 @lj_opt_fold(ptr noundef nonnull %0) #8
  %50 = trunc i32 %49 to i16
  store i16 4627, ptr %23, align 4, !tbaa !4
  store i16 %50, ptr %22, align 8, !tbaa !4
  store i16 0, ptr %24, align 2, !tbaa !4
  br label %.sink.split

51:                                               ; preds = %6
  %52 = icmp eq i32 %5, 0
  %53 = icmp ne i32 %1, 19
  %or.cond3.not57 = or i1 %53, %52
  %54 = and i32 %3, 32768
  %.not.not52 = icmp eq i32 %54, 0
  %or.cond54 = or i1 %.not.not52, %or.cond3.not57
  br i1 %or.cond54, label %71, label %55

55:                                               ; preds = %51
  %56 = trunc i32 %3 to i16
  %57 = getelementptr inbounds nuw i8, ptr %0, i64 32
  %58 = load ptr, ptr %57, align 8, !tbaa !38
  %.mask53 = and i32 %4, 32767
  %59 = zext nneg i32 %.mask53 to i64
  %60 = getelementptr inbounds nuw %union.IRIns, ptr %58, i64 %59
  %61 = load i32, ptr %60, align 8, !tbaa !4
  %.not = icmp eq i32 %2, 0
  %62 = select i1 %.not, i32 -2147483648, i32 2147483647
  %63 = sub nsw i32 %62, %61
  %64 = select i1 %.not, i16 403, i16 659
  %65 = tail call i32 @lj_ir_kint(ptr noundef %0, i32 noundef %63) #8
  %66 = trunc i32 %65 to i16
  %67 = getelementptr inbounds nuw i8, ptr %0, i64 184
  %68 = getelementptr inbounds nuw i8, ptr %0, i64 188
  store i16 %64, ptr %68, align 4, !tbaa !4
  store i16 %56, ptr %67, align 8, !tbaa !4
  %69 = getelementptr inbounds nuw i8, ptr %0, i64 186
  store i16 %66, ptr %69, align 2, !tbaa !4
  br label %.sink.split

.sink.split:                                      ; preds = %55, %37, %43, %47
  %70 = tail call i32 @lj_opt_fold(ptr noundef %0) #8
  br label %71

71:                                               ; preds = %.sink.split, %15, %41, %35, %51
  ret void
}